target datalayout = "e-m:e-p270:32:32-p271:32:32-p272:64:64-i64:64-i128:128-f80:128-n8:16:32:64-S128"
target triple = "x86_64-pc-linux-gnu"

%"class.std::__cxx11::basic_string" = type { %"struct.std::__cxx11::basic_string<char>::_Alloc_hider", i64, %union.anon.37 }
%"struct.std::__cxx11::basic_string<char>::_Alloc_hider" = type { ptr }
%union.anon.37 = type { i64, [8 x i8] }

@.str.20 = private unnamed_addr constant [7 x i8] c"getPtr\00", align 1
@.str.21 = private unnamed_addr constant [8 x i8] c"WeakPtr\00", align 1
@.str.22 = private unnamed_addr constant [16 x i8] c"dynamicDowncast\00", align 1
@.str.23 = private unnamed_addr constant [9 x i8] c"downcast\00", align 1
@.str.24 = private unnamed_addr constant [16 x i8] c"checkedDowncast\00", align 1
@.str.25 = private unnamed_addr constant [18 x i8] c"uncheckedDowncast\00", align 1
@.str.26 = private unnamed_addr constant [13 x i8] c"bitwise_cast\00", align 1

; Function Attrs: mustprogress nounwind uwtable
define linkonce_odr noundef zeroext i1 @_ZSteqIcSt11char_traitsIcESaIcEEbRKNSt7__cxx1112basic_stringIT_T0_T1_EEPKS5_(ptr noundef nonnull align 8 dereferenceable(32) %0, ptr noundef %1) #0 comdat {
  %3 = alloca ptr, align 8
  %4 = alloca ptr, align 8
  store ptr %0, ptr %3, align 8
  store ptr %1, ptr %4, align 8
  %5 = load ptr, ptr %3, align 8
  %6 = load ptr, ptr %4, align 8
  %7 = call noundef i32 @_ZNKSt7__cxx1112basic_stringIcSt11char_traitsIcESaIcEE7compareEPKc(ptr noundef nonnull align 8 dereferenceable(32) %5, ptr noundef %6) #8
  %8 = icmp eq i32 %7, 0
  ret i1 %8
}

; Function Attrs: mustprogress nounwind uwtable
define dso_local noundef zeroext i1 @_ZN5clang15isPtrConversionEPKNS_12FunctionDeclE(ptr noundef %0) #0 {
  %2 = alloca i1, align 1
  %3 = alloca ptr, align 8
  %4 = alloca %"class.std::__cxx11::basic_string", align 8
  %5 = alloca i32, align 4
  store ptr %0, ptr %3, align 8
  %6 = load ptr, ptr %3, align 8
  %7 = call noundef zeroext i1 @_ZN5clang18isCtorOfRefCountedEPKNS_12FunctionDeclE(ptr noundef %6)
  br i1 %7, label %8, label %9

8:                                                ; preds = %1
  store i1 true, ptr %2, align 1
  br label %27

9:                                                ; preds = %1
  %10 = load ptr, ptr %3, align 8
  call void @_ZN5clang11safeGetNameINS_12FunctionDeclEEENSt7__cxx1112basic_stringIcSt11char_traitsIcESaIcEEEPKT_(ptr dead_on_unwind writable sret(%"class.std::__cxx11::basic_string") align 8 %4, ptr noundef %10)
  %11 = call noundef zeroext i1 @_ZSteqIcSt11char_traitsIcESaIcEEbRKNSt7__cxx1112basic_stringIT_T0_T1_EEPKS5_(ptr noundef nonnull align 8 dereferenceable(32) %4, ptr noundef @.str.20)
  br i1 %11, label %24, label %12

12:                                               ; preds = %9
  %13 = call noundef zeroext i1 @_ZSteqIcSt11char_traitsIcESaIcEEbRKNSt7__cxx1112basic_stringIT_T0_T1_EEPKS5_(ptr noundef nonnull align 8 dereferenceable(32) %4, ptr noundef @.str.21)
  br i1 %13, label %24, label %14

14:                                               ; preds = %12
  %15 = call noundef zeroext i1 @_ZSteqIcSt11char_traitsIcESaIcEEbRKNSt7__cxx1112basic_stringIT_T0_T1_EEPKS5_(ptr noundef nonnull align 8 dereferenceable(32) %4, ptr noundef @.str.22)
  br i1 %15, label %24, label %16

16:                                               ; preds = %14
  %17 = call noundef zeroext i1 @_ZSteqIcSt11char_traitsIcESaIcEEbRKNSt7__cxx1112basic_stringIT_T0_T1_EEPKS5_(ptr noundef nonnull align 8 dereferenceable(32) %4, ptr noundef @.str.23)
  br i1 %17, label %24, label %18

18:                                               ; preds = %16
  %19 = call noundef zeroext i1 @_ZSteqIcSt11char_traitsIcESaIcEEbRKNSt7__cxx1112basic_stringIT_T0_T1_EEPKS5_(ptr noundef nonnull align 8 dereferenceable(32) %4, ptr noundef @.str.24)
  br i1 %19, label %24, label %20

20:                                               ; preds = %18
  %21 = call noundef zeroext i1 @_ZSteqIcSt11char_traitsIcESaIcEEbRKNSt7__cxx1112basic_stringIT_T0_T1_EEPKS5_(ptr noundef nonnull align 8 dereferenceable(32) %4, ptr noundef @.str.25)
  br i1 %21, label %24, label %22

22:                                               ; preds = %20
  %23 = call noundef zeroext i1 @_ZSteqIcSt11char_traitsIcESaIcEEbRKNSt7__cxx1112basic_stringIT_T0_T1_EEPKS5_(ptr noundef nonnull align 8 dereferenceable(32) %4, ptr noundef @.str.26)
  br i1 %23, label %24, label %25

24:                                               ; preds = %22, %20, %18, %16, %14, %12, %9
  store i1 true, ptr %2, align 1
  store i32 1, ptr %5, align 4
  br label %26

25:                                               ; preds = %22
  store i1 false, ptr %2, align 1
  store i32 1, ptr %5, align 4
  br label %26

26:                                               ; preds = %25, %24
  call void @_ZNSt7__cxx1112basic_stringIcSt11char_traitsIcESaIcEED1Ev(ptr noundef nonnull align 8 dereferenceable(32) %4) #8
  br label %27

27:                                               ; preds = %26, %8
  %28 = load i1, ptr %2, align 1
  ret i1 %28
}